target datalayout = "e-m:e-p270:32:32-p271:32:32-p272:64:64-i64:64-i128:128-f80:128-n8:16:32:64-S128"
target triple = "x86_64-pc-linux-gnu"

@.str.52 = private unnamed_addr constant [68 x i8] c"Valid units for this parameter are \22B\22, \22kB\22, \22MB\22, \22GB\22, and \22TB\22.\00", align 1
@.str.53 = private unnamed_addr constant [73 x i8] c"Valid units for this parameter are \22us\22, \22ms\22, \22s\22, \22min\22, \22h\22, and \22d\22.\00", align 1

; Function Attrs: nounwind uwtable
define dso_local zeroext i1 @parse_real(ptr noundef %0, ptr noundef %1, i32 noundef %2, ptr noundef %3) #0 {
  %5 = alloca i1, align 1
  %6 = alloca ptr, align 8
  %7 = alloca ptr, align 8
  %8 = alloca i32, align 4
  %9 = alloca ptr, align 8
  %10 = alloca double, align 8
  %11 = alloca ptr, align 8
  %12 = alloca i32, align 4
  store ptr %0, ptr %6, align 8
  store ptr %1, ptr %7, align 8
  store i32 %2, ptr %8, align 4
  store ptr %3, ptr %9, align 8
  call void @llvm.lifetime.start.p0(i64 8, ptr %10) #16
  call void @llvm.lifetime.start.p0(i64 8, ptr %11) #16
  %13 = load ptr, ptr %7, align 8
  %14 = icmp ne ptr %13, null
  br i1 %14, label %15, label %17

15:                                               ; preds = %4
  %16 = load ptr, ptr %7, align 8
  store double 0.000000e+00, ptr %16, align 8
  br label %17

17:                                               ; preds = %15, %4
  %18 = load ptr, ptr %9, align 8
  %19 = icmp ne ptr %18, null
  br i1 %19, label %20, label %22

20:                                               ; preds = %17
  %21 = load ptr, ptr %9, align 8
  store ptr null, ptr %21, align 8
  br label %22

22:                                               ; preds = %20, %17
  %23 = call ptr @__errno_location() #19
  store i32 0, ptr %23, align 4
  %24 = load ptr, ptr %6, align 8
  %25 = call double @strtod(ptr noundef %24, ptr noundef %11) #16
  store double %25, ptr %10, align 8
  %26 = load ptr, ptr %11, align 8
  %27 = load ptr, ptr %6, align 8
  %28 = icmp eq ptr %26, %27
  br i1 %28, label %33, label %29

29:                                               ; preds = %22
  %30 = call ptr @__errno_location() #19
  %31 = load i32, ptr %30, align 4
  %32 = icmp eq i32 %31, 34
  br i1 %32, label %33, label %34

33:                                               ; preds = %29, %22
  store i1 false, ptr %5, align 1
  store i32 1, ptr %12, align 4
  br label %91

34:                                               ; preds = %29
  %35 = load double, ptr %10, align 8
  %36 = call i1 @llvm.is.fpclass.f64(double %35, i32 3)
  br i1 %36, label %37, label %38

37:                                               ; preds = %34
  store i1 false, ptr %5, align 1
  store i32 1, ptr %12, align 4
  br label %91

38:                                               ; preds = %34
  br label %39

39:                                               ; preds = %51, %38
  %40 = call ptr @__ctype_b_loc() #19
  %41 = load ptr, ptr %40, align 8
  %42 = load ptr, ptr %11, align 8
  %43 = load i8, ptr %42, align 1
  %44 = zext i8 %43 to i32
  %45 = sext i32 %44 to i64
  %46 = getelementptr inbounds i16, ptr %41, i64 %45
  %47 = load i16, ptr %46, align 2
  %48 = zext i16 %47 to i32
  %49 = and i32 %48, 8192
  %50 = icmp ne i32 %49, 0
  br i1 %50, label %51, label %54

51:                                               ; preds = %39
  %52 = load ptr, ptr %11, align 8
  %53 = getelementptr inbounds nuw i8, ptr %52, i32 1
  store ptr %53, ptr %11, align 8
  br label %39, !llvm.loop !42

54:                                               ; preds = %39
  %55 = load ptr, ptr %11, align 8
  %56 = load i8, ptr %55, align 1
  %57 = sext i8 %56 to i32
  %58 = icmp ne i32 %57, 0
  br i1 %58, label %59, label %84

59:                                               ; preds = %54
  %60 = load i32, ptr %8, align 4
  %61 = and i32 %60, 2130706432
  %62 = icmp eq i32 %61, 0
  br i1 %62, label %63, label %64

63:                                               ; preds = %59
  store i1 false, ptr %5, align 1
  store i32 1, ptr %12, align 4
  br label %91

64:                                               ; preds = %59
  %65 = load double, ptr %10, align 8
  %66 = load ptr, ptr %11, align 8
  %67 = load i32, ptr %8, align 4
  %68 = and i32 %67, 2130706432
  %69 = call zeroext i1 @convert_to_base_unit(double noundef %65, ptr noundef %66, i32 noundef %68, ptr noundef %10)
  br i1 %69, label %83, label %70

70:                                               ; preds = %64
  %71 = load ptr, ptr %9, align 8
  %72 = icmp ne ptr %71, null
  br i1 %72, label %73, label %82

73:                                               ; preds = %70
  %74 = load i32, ptr %8, align 4
  %75 = and i32 %74, 251658240
  %76 = icmp ne i32 %75, 0
  br i1 %76, label %77, label %79

77:                                               ; preds = %73
  %78 = load ptr, ptr %9, align 8
  store ptr @.str.52, ptr %78, align 8
  br label %81

79:                                               ; preds = %73
  %80 = load ptr, ptr %9, align 8
  store ptr @.str.53, ptr %80, align 8
  br label %81

81:                                               ; preds = %79, %77
  br label %82

82:                                               ; preds = %81, %70
  store i1 false, ptr %5, align 1
  store i32 1, ptr %12, align 4
  br label %91

83:                                               ; preds = %64
  br label %84

84:                                               ; preds = %83, %54
  %85 = load ptr, ptr %7, align 8
  %86 = icmp ne ptr %85, null
  br i1 %86, label %87, label %90

87:                                               ; preds = %84
  %88 = load double, ptr %10, align 8
  %89 = load ptr, ptr %7, align 8
  store double %88, ptr %89, align 8
  br label %90

90:                                               ; preds = %87, %84
  store i1 true, ptr %5, align 1
  store i32 1, ptr %12, align 4
  br label %91

91:                                               ; preds = %90, %82, %63, %37, %33
  call void @llvm.lifetime.end.p0(i64 8, ptr %11) #16
  call void @llvm.lifetime.end.p0(i64 8, ptr %10) #16
  %92 = load i1, ptr %5, align 1
  ret i1 %92
}