; Function Attrs: nofree nounwind uwtable
define dso_local noundef zeroext i1 @parse_real(ptr noundef %0, ptr noundef writeonly captures(address_is_null) %1, i32 noundef %2, ptr noundef writeonly captures(address_is_null) %3) local_unnamed_addr #14 {
  %5 = alloca double, align 8
  %6 = alloca ptr, align 8
  call void @llvm.lifetime.start.p0(i64 8, ptr nonnull %5) #29
  call void @llvm.lifetime.start.p0(i64 8, ptr nonnull %6) #29
  %.not = icmp eq ptr %1, null
  br i1 %.not, label %8, label %7

7:                                                ; preds = %4
  store double 0.000000e+00, ptr %1, align 8
  br label %8

8:                                                ; preds = %7, %4
  %.not18 = icmp eq ptr %3, null
  br i1 %.not18, label %10, label %9

9:                                                ; preds = %8
  store ptr null, ptr %3, align 8
  br label %10

10:                                               ; preds = %9, %8
  %11 = tail call ptr @__errno_location() #32
  store i32 0, ptr %11, align 4
  %12 = call double @strtod(ptr noundef %0, ptr noundef nonnull %6) #29
  store double %12, ptr %5, align 8
  %13 = load ptr, ptr %6, align 8
  %14 = icmp eq ptr %13, %0
  br i1 %14, label %43, label %15

15:                                               ; preds = %10
  %16 = load i32, ptr %11, align 4
  %17 = icmp eq i32 %16, 34
  %18 = fcmp uno double %12, 0.000000e+00
  %or.cond = select i1 %17, i1 true, i1 %18
  br i1 %or.cond, label %43, label %.preheader

.preheader:                                       ; preds = %15
  %19 = tail call ptr @__ctype_b_loc() #32
  %20 = load ptr, ptr %19, align 8
  br label %21

21:                                               ; preds = %21, %.preheader
  %22 = phi ptr [ %13, %.preheader ], [ %28, %21 ]
  %23 = load i8, ptr %22, align 1
  %24 = zext i8 %23 to i64
  %25 = getelementptr inbounds nuw i16, ptr %20, i64 %24
  %26 = load i16, ptr %25, align 2
  %27 = and i16 %26, 8192
  %.not19 = icmp eq i16 %27, 0
  %28 = getelementptr inbounds nuw i8, ptr %22, i64 1
  br i1 %.not19, label %29, label %21, !llvm.loop !43

29:                                               ; preds = %21
  %.not20 = icmp eq i8 %23, 0
  br i1 %.not20, label %40, label %30

30:                                               ; preds = %29
  %31 = and i32 %2, 2130706432
  %32 = icmp eq i32 %31, 0
  br i1 %32, label %43, label %33

33:                                               ; preds = %30
  %34 = call fastcc zeroext i1 @convert_to_base_unit(double noundef %12, ptr noundef nonnull %22, i32 noundef %31, ptr noundef %5)
  br i1 %34, label %40, label %35

35:                                               ; preds = %33
  br i1 %.not18, label %43, label %36

36:                                               ; preds = %35
  %37 = and i32 %2, 251658240
  %.not21 = icmp eq i32 %37, 0
  br i1 %.not21, label %39, label %38

38:                                               ; preds = %36
  store ptr @.str.52, ptr %3, align 8
  br label %43

39:                                               ; preds = %36
  store ptr @.str.53, ptr %3, align 8
  br label %43

40:                                               ; preds = %33, %29
  br i1 %.not, label %43, label %41

41:                                               ; preds = %40
  %42 = load double, ptr %5, align 8
  store double %42, ptr %1, align 8
  br label %43

43:                                               ; preds = %40, %41, %35, %39, %38, %30, %10, %15
  %.0 = phi i1 [ false, %15 ], [ false, %10 ], [ false, %30 ], [ false, %38 ], [ false, %39 ], [ false, %35 ], [ true, %41 ], [ true, %40 ]
  call void @llvm.lifetime.end.p0(i64 8, ptr nonnull %6) #29
  call void @llvm.lifetime.end.p0(i64 8, ptr nonnull %5) #29
  ret i1 %.0
}